; Function Attrs: nounwind uwtable
define dso_local range(i32 -1, 1) i32 @preempt_p_get_data(ptr noundef readonly captures(none) %0, i32 noundef %1, ptr noundef writeonly captures(none) %2) local_unnamed_addr #0 {
  switch i32 %1, label %35 [
    i32 0, label %4
    i32 1, label %8
    i32 2, label %20
    i32 3, label %30
  ]

4:                                                ; preds = %3
  %5 = load i16, ptr getelementptr inbounds nuw (i8, ptr @slurm_conf, i64 796), align 4
  %6 = icmp ne i16 %5, 0
  %7 = zext i1 %6 to i8
  store i8 %7, ptr %2, align 1
  br label %37

8:                                                ; preds = %3
  %9 = getelementptr i8, ptr %0, i64 672
  %.val = load ptr, ptr %9, align 8
  %.not.i = icmp eq ptr %.val, null
  br i1 %.not.i, label %_job_preempt_mode.exit, label %10

10:                                               ; preds = %8
  %11 = getelementptr inbounds nuw i8, ptr %.val, i64 282
  %12 = load i16, ptr %11, align 2
  %.not8.i = icmp eq i16 %12, -2
  br i1 %.not8.i, label %_job_preempt_mode.exit, label %13

13:                                               ; preds = %10
  %.not9.i = icmp sgt i16 %12, -1
  br i1 %.not9.i, label %_job_preempt_mode.exit, label %14

14:                                               ; preds = %13
  %15 = tail call i32 @get_log_level() #5
  %16 = icmp sgt i32 %15, 3
  br i1 %16, label %17, label %_job_preempt_mode.exit

17:                                               ; preds = %14
  %18 = getelementptr inbounds nuw i8, ptr %.val, i64 232
  %19 = load ptr, ptr %18, align 8
  tail call void (i32, ptr, ...) @log_var(i32 noundef 4, ptr noundef nonnull @.str.2, ptr noundef nonnull @plugin_type, ptr noundef nonnull @__func__._job_preempt_mode, ptr noundef %19) #5
  br label %_job_preempt_mode.exit

_job_preempt_mode.exit:                           ; preds = %8, %10, %13, %14, %17
  %.0.in.in.i = phi ptr [ %11, %14 ], [ %11, %17 ], [ %11, %13 ], [ getelementptr inbounds nuw (i8, ptr @slurm_conf, i64 796), %10 ], [ getelementptr inbounds nuw (i8, ptr @slurm_conf, i64 796), %8 ]
  %.0.in.i = load i16, ptr %.0.in.in.i, align 2
  %.0.i = and i16 %.0.in.i, 32767
  store i16 %.0.i, ptr %2, align 2
  br label %37

20:                                               ; preds = %3
  %21 = getelementptr inbounds nuw i8, ptr %0, i64 672
  %22 = load ptr, ptr %21, align 8
  %.not.i10 = icmp eq ptr %22, null
  br i1 %.not.i10, label %_gen_job_prio.exit, label %23

23:                                               ; preds = %20
  %24 = getelementptr inbounds nuw i8, ptr %22, i64 286
  %25 = load i16, ptr %24, align 2
  %26 = zext i16 %25 to i32
  %27 = shl nuw i32 %26, 16
  br label %_gen_job_prio.exit

_gen_job_prio.exit:                               ; preds = %20, %23
  %.0.i11 = phi i32 [ %27, %23 ], [ 0, %20 ]
  %28 = getelementptr inbounds nuw i8, ptr %0, i64 608
  %29 = load i32, ptr %28, align 8
  %.1.v.i = tail call i32 @llvm.umin.i32(i32 %29, i32 65535)
  %.1.i = or disjoint i32 %.1.v.i, %.0.i11
  store i32 %.1.i, ptr %2, align 4
  br label %37

30:                                               ; preds = %3
  %31 = getelementptr i8, ptr %0, i64 672
  %.val9 = load ptr, ptr %31, align 8
  %.not.i12 = icmp eq ptr %.val9, null
  br i1 %.not.i12, label %_get_grace_time.exit, label %32

32:                                               ; preds = %30
  %33 = getelementptr inbounds nuw i8, ptr %.val9, i64 172
  %34 = load i32, ptr %33, align 4
  br label %_get_grace_time.exit

_get_grace_time.exit:                             ; preds = %30, %32
  %.0.i13 = phi i32 [ %34, %32 ], [ 0, %30 ]
  store i32 %.0.i13, ptr %2, align 4
  br label %37

35:                                               ; preds = %3
  %36 = tail call i32 (ptr, ...) @error(ptr noundef nonnull @.str.1, ptr noundef nonnull @__func__.preempt_p_get_data, i32 noundef %1) #5
  br label %37

37:                                               ; preds = %35, %_get_grace_time.exit, %_gen_job_prio.exit, %_job_preempt_mode.exit, %4
  %.0 = phi i32 [ -1, %35 ], [ 0, %_get_grace_time.exit ], [ 0, %_gen_job_prio.exit ], [ 0, %_job_preempt_mode.exit ], [ 0, %4 ]
  ret i32 %.0
}